(dp0
S'lastDialogQuickKey'
p1
(dp2
S'modelName'
p3
VAAA Basic
p4
sS'ctrl'
p5
I0
sS'color'
p6
Vyellow
p7
sS'shift'
p8
I0
sS'transient'
p9
NsS'enabled'
p10
I0
sS'keyName'
p11
V0
p12
sS'fieldName'
p13
VFront
p14
sS'deckName'
p15
V> AAA H\u1eccC PH\u1eacT
p16
sS'showEditCurrent'
p17
I0
sS'colorText'
p18
Vtrue
p19
sS'alt'
p20
I0
sS'showEditor'
p21
I0
ssS'textSizeMultiplier'
p22
F1.31307509594685
sS'quickKeys'
p23
(dp24
s.